target datalayout = "e-m:e-p270:32:32-p271:32:32-p272:64:64-i64:64-i128:128-f80:128-n8:16:32:64-S128"
target triple = "x86_64-pc-linux-gnu"

%struct.hb_buffer_t = type <{ %struct.hb_object_header_t, ptr, i32, i32, i32, i32, i32, i32, %struct.hb_segment_properties_t, i8, i8, i8, i8, i32, i32, i32, i32, [4 x i8], ptr, ptr, ptr, [2 x [5 x i32]], [2 x i32], i8, i8, [2 x i8], i32, i32, i32, ptr, ptr, ptr, i32, [4 x i8] }>
%struct.hb_object_header_t = type { %struct.hb_reference_count_t, %struct.hb_atomic_int_t, %struct.hb_atomic_ptr_t }
%struct.hb_reference_count_t = type { %struct.hb_atomic_int_t }
%struct.hb_atomic_int_t = type { i32 }
%struct.hb_atomic_ptr_t = type { ptr }
%struct.hb_segment_properties_t = type { i32, i32, ptr, ptr, ptr }
%struct.hb_glyph_info_t = type { i32, i32, i32, %union._hb_var_int_t, %union._hb_var_int_t }
%union._hb_var_int_t = type { i32 }

@.str = private unnamed_addr constant [20 x i8] c"start fallback mark\00", align 1
@.str.1 = private unnamed_addr constant [18 x i8] c"end fallback mark\00", align 1

; Function Attrs: mustprogress nounwind uwtable
define linkonce_odr hidden void @_ZN11hb_buffer_t10assert_varEjj(ptr noundef nonnull align 8 dereferenceable(220) %0, i32 noundef %1, i32 noundef %2) #1 comdat align 2 {
  %4 = alloca ptr, align 8
  %5 = alloca i32, align 4
  %6 = alloca i32, align 4
  %7 = alloca i32, align 4
  %8 = alloca i32, align 4
  store ptr %0, ptr %4, align 8
  store i32 %1, ptr %5, align 4
  store i32 %2, ptr %6, align 4
  %9 = load i32, ptr %5, align 4
  %10 = load i32, ptr %6, align 4
  %11 = add i32 %9, %10
  store i32 %11, ptr %7, align 4
  %12 = load i32, ptr %7, align 4
  %13 = shl i32 1, %12
  %14 = load i32, ptr %5, align 4
  %15 = shl i32 1, %14
  %16 = sub i32 %13, %15
  store i32 %16, ptr %8, align 4
  ret void
}

; Function Attrs: mustprogress nounwind uwtable
define internal noundef zeroext i1 @_ZL30_hb_glyph_info_is_unicode_markPK15hb_glyph_info_t(ptr noundef %0) #1 {
  %2 = alloca ptr, align 8
  store ptr %0, ptr %2, align 8
  %3 = load ptr, ptr %2, align 8
  %4 = getelementptr inbounds %struct.hb_glyph_info_t, ptr %3, i32 0, i32 4
  %5 = getelementptr inbounds [2 x i16], ptr %4, i64 0, i64 0
  %6 = load i16, ptr %5, align 4
  %7 = zext i16 %6 to i32
  %8 = and i32 %7, 31
  %9 = icmp ult i32 %8, 32
  br i1 %9, label %10, label %18

10:                                               ; preds = %1
  %11 = load ptr, ptr %2, align 8
  %12 = getelementptr inbounds %struct.hb_glyph_info_t, ptr %11, i32 0, i32 4
  %13 = getelementptr inbounds [2 x i16], ptr %12, i64 0, i64 0
  %14 = load i16, ptr %13, align 4
  %15 = zext i16 %14 to i32
  %16 = and i32 %15, 31
  %17 = shl i32 1, %16
  br label %19

18:                                               ; preds = %1
  br label %19

19:                                               ; preds = %18, %10
  %20 = phi i32 [ %17, %10 ], [ 0, %18 ]
  %21 = and i32 %20, 7168
  %22 = icmp ne i32 %21, 0
  ret i1 %22
}

; Function Attrs: mustprogress uwtable
define internal void @_ZL31_hb_buffer_assert_gsubgpos_varsP11hb_buffer_t(ptr noundef %0) #0 {
  %2 = alloca ptr, align 8
  store ptr %0, ptr %2, align 8
  %3 = load ptr, ptr %2, align 8
  call void @_ZN11hb_buffer_t10assert_varEjj(ptr noundef nonnull align 8 dereferenceable(220) %3, i32 noundef 0, i32 noundef 2)
  %4 = load ptr, ptr %2, align 8
  call void @_ZN11hb_buffer_t10assert_varEjj(ptr noundef nonnull align 8 dereferenceable(220) %4, i32 noundef 2, i32 noundef 1)
  ret void
}

; Function Attrs: mustprogress uwtable
define hidden void @_Z35_hb_ot_shape_fallback_mark_positionPK18hb_ot_shape_plan_tP9hb_font_tP11hb_buffer_tb(ptr noundef %0, ptr noundef %1, ptr noundef %2, i1 noundef zeroext %3) #0 {
  %5 = alloca ptr, align 8
  %6 = alloca ptr, align 8
  %7 = alloca ptr, align 8
  %8 = alloca i8, align 1
  %9 = alloca i32, align 4
  %10 = alloca i32, align 4
  %11 = alloca ptr, align 8
  %12 = alloca i32, align 4
  store ptr %0, ptr %5, align 8
  store ptr %1, ptr %6, align 8
  store ptr %2, ptr %7, align 8
  %13 = zext i1 %3 to i8
  store i8 %13, ptr %8, align 1
  %14 = load ptr, ptr %7, align 8
  %15 = load ptr, ptr %6, align 8
  %16 = call noundef zeroext i1 (ptr, ptr, ptr, ...) @_ZN11hb_buffer_t7messageEP9hb_font_tPKcz(ptr noundef nonnull align 8 dereferenceable(220) %14, ptr noundef %15, ptr noundef @.str)
  br i1 %16, label %18, label %17

17:                                               ; preds = %4
  br label %60

18:                                               ; preds = %4
  %19 = load ptr, ptr %7, align 8
  call void @_ZL31_hb_buffer_assert_gsubgpos_varsP11hb_buffer_t(ptr noundef %19)
  store i32 0, ptr %9, align 4
  %20 = load ptr, ptr %7, align 8
  %21 = getelementptr inbounds %struct.hb_buffer_t, ptr %20, i32 0, i32 14
  %22 = load i32, ptr %21, align 8
  store i32 %22, ptr %10, align 4
  %23 = load ptr, ptr %7, align 8
  %24 = getelementptr inbounds %struct.hb_buffer_t, ptr %23, i32 0, i32 18
  %25 = load ptr, ptr %24, align 8
  store ptr %25, ptr %11, align 8
  store i32 1, ptr %12, align 4
  br label %26

26:                                               ; preds = %46, %18
  %27 = load i32, ptr %12, align 4
  %28 = load i32, ptr %10, align 4
  %29 = icmp ult i32 %27, %28
  br i1 %29, label %30, label %49

30:                                               ; preds = %26
  %31 = load ptr, ptr %11, align 8
  %32 = load i32, ptr %12, align 4
  %33 = zext i32 %32 to i64
  %34 = getelementptr inbounds %struct.hb_glyph_info_t, ptr %31, i64 %33
  %35 = call noundef zeroext i1 @_ZL30_hb_glyph_info_is_unicode_markPK15hb_glyph_info_t(ptr noundef %34)
  br i1 %35, label %45, label %36

36:                                               ; preds = %30
  %37 = load ptr, ptr %5, align 8
  %38 = load ptr, ptr %6, align 8
  %39 = load ptr, ptr %7, align 8
  %40 = load i32, ptr %9, align 4
  %41 = load i32, ptr %12, align 4
  %42 = load i8, ptr %8, align 1
  %43 = trunc i8 %42 to i1
  call void @_ZL16position_clusterPK18hb_ot_shape_plan_tP9hb_font_tP11hb_buffer_tjjb(ptr noundef %37, ptr noundef %38, ptr noundef %39, i32 noundef %40, i32 noundef %41, i1 noundef zeroext %43)
  %44 = load i32, ptr %12, align 4
  store i32 %44, ptr %9, align 4
  br label %45

45:                                               ; preds = %36, %30
  br label %46

46:                                               ; preds = %45
  %47 = load i32, ptr %12, align 4
  %48 = add i32 %47, 1
  store i32 %48, ptr %12, align 4
  br label %26, !llvm.loop !8

49:                                               ; preds = %26
  %50 = load ptr, ptr %5, align 8
  %51 = load ptr, ptr %6, align 8
  %52 = load ptr, ptr %7, align 8
  %53 = load i32, ptr %9, align 4
  %54 = load i32, ptr %10, align 4
  %55 = load i8, ptr %8, align 1
  %56 = trunc i8 %55 to i1
  call void @_ZL16position_clusterPK18hb_ot_shape_plan_tP9hb_font_tP11hb_buffer_tjjb(ptr noundef %50, ptr noundef %51, ptr noundef %52, i32 noundef %53, i32 noundef %54, i1 noundef zeroext %56)
  %57 = load ptr, ptr %7, align 8
  %58 = load ptr, ptr %6, align 8
  %59 = call noundef zeroext i1 (ptr, ptr, ptr, ...) @_ZN11hb_buffer_t7messageEP9hb_font_tPKcz(ptr noundef nonnull align 8 dereferenceable(220) %57, ptr noundef %58, ptr noundef @.str.1)
  br label %60

60:                                               ; preds = %49, %17
  ret void
}