; Function Attrs: mustprogress uwtable
define hidden void @_Z35_hb_ot_shape_fallback_mark_positionPK18hb_ot_shape_plan_tP9hb_font_tP11hb_buffer_tb(ptr nocapture noundef readonly %0, ptr noundef %1, ptr noundef nonnull %2, i1 noundef zeroext %3) local_unnamed_addr #1 {
  %5 = tail call noundef zeroext i1 (ptr, ptr, ptr, ...) @_ZN11hb_buffer_t7messageEP9hb_font_tPKcz(ptr noundef nonnull align 8 dereferenceable(220) %2, ptr noundef %1, ptr noundef nonnull @.str)
  br i1 %5, label %6, label %21

6:                                                ; preds = %4
  %7 = getelementptr inbounds i8, ptr %2, i64 88
  %8 = load i32, ptr %7, align 8
  %9 = getelementptr inbounds i8, ptr %2, i64 104
  %10 = load ptr, ptr %9, align 8
  %11 = icmp ugt i32 %8, 1
  br i1 %11, label %.lr.ph.preheader, label %._crit_edge

.lr.ph.preheader:                                 ; preds = %6
  %wide.trip.count = zext i32 %8 to i64
  br label %.lr.ph

.lr.ph:                                           ; preds = %.lr.ph.preheader, %19
  %indvars.iv = phi i64 [ 1, %.lr.ph.preheader ], [ %indvars.iv.next, %19 ]
  %.02426 = phi i32 [ 0, %.lr.ph.preheader ], [ %.1, %19 ]
  %12 = getelementptr %struct.hb_glyph_info_t, ptr %10, i64 %indvars.iv, i32 4
  %.val = load i16, ptr %12, align 4
  %13 = and i16 %.val, 31
  %14 = zext nneg i16 %13 to i32
  %15 = shl nuw i32 1, %14
  %16 = and i32 %15, 7168
  %.not = icmp eq i32 %16, 0
  br i1 %.not, label %17, label %19

17:                                               ; preds = %.lr.ph
  %18 = trunc nuw i64 %indvars.iv to i32
  tail call fastcc void @_ZL16position_clusterPK18hb_ot_shape_plan_tP9hb_font_tP11hb_buffer_tjjb(ptr noundef %0, ptr noundef %1, ptr noundef nonnull %2, i32 noundef %.02426, i32 noundef %18, i1 noundef zeroext %3)
  br label %19

19:                                               ; preds = %.lr.ph, %17
  %.1 = phi i32 [ %.02426, %.lr.ph ], [ %18, %17 ]
  %indvars.iv.next = add nuw nsw i64 %indvars.iv, 1
  %exitcond.not = icmp eq i64 %indvars.iv.next, %wide.trip.count
  br i1 %exitcond.not, label %._crit_edge, label %.lr.ph, !llvm.loop !8

._crit_edge:                                      ; preds = %19, %6
  %.024.lcssa = phi i32 [ 0, %6 ], [ %.1, %19 ]
  tail call fastcc void @_ZL16position_clusterPK18hb_ot_shape_plan_tP9hb_font_tP11hb_buffer_tjjb(ptr noundef %0, ptr noundef %1, ptr noundef nonnull %2, i32 noundef %.024.lcssa, i32 noundef %8, i1 noundef zeroext %3)
  %20 = tail call noundef zeroext i1 (ptr, ptr, ptr, ...) @_ZN11hb_buffer_t7messageEP9hb_font_tPKcz(ptr noundef nonnull align 8 dereferenceable(220) %2, ptr noundef %1, ptr noundef nonnull @.str.1)
  br label %21

21:                                               ; preds = %4, %._crit_edge
  ret void
}